; Function Attrs: mustprogress nounwind uwtable
define internal fastcc void @_ZN9grpc_core12_GLOBAL__N_18RingHash16RingHashEndpoint12EndpointInfoD2Ev(ptr nocapture noundef nonnull readonly align 8 dereferenceable(32) %this) unnamed_addr #4 align 2 personality ptr @__gxx_personality_v0 {
entry:
  %status = getelementptr inbounds i8, ptr %this, i64 24
  %0 = load i64, ptr %status, align 8
  %and.i.i.i = and i64 %0, 1
  %cmp.i.i.i = icmp eq i64 %and.i.i.i, 0
  br i1 %cmp.i.i.i, label %_ZN4absl12lts_202308026StatusD2Ev.exit, label %if.then.i.i

if.then.i.i:                                      ; preds = %entry
  invoke void @_ZN4absl12lts_202308026Status15UnrefNonInlinedEm(i64 noundef %0)
          to label %_ZN4absl12lts_202308026StatusD2Ev.exit unwind label %terminate.lpad.i

terminate.lpad.i:                                 ; preds = %if.then.i.i
  %1 = landingpad { ptr, i32 }
          catch ptr null
  %2 = extractvalue { ptr, i32 } %1, 0
  tail call void @__clang_call_terminate(ptr %2) #26
  unreachable

_ZN4absl12lts_202308026StatusD2Ev.exit:           ; preds = %entry, %if.then.i.i
  %picker = getelementptr inbounds i8, ptr %this, i64 8
  %3 = load ptr, ptr %picker, align 8
  %cmp.not.i = icmp eq ptr %3, null
  br i1 %cmp.not.i, label %_ZN9grpc_core13RefCountedPtrINS_19LoadBalancingPolicy16SubchannelPickerEED2Ev.exit, label %if.then.i

if.then.i:                                        ; preds = %_ZN4absl12lts_202308026StatusD2Ev.exit
  %refs_.i.i = getelementptr inbounds i8, ptr %3, i64 8
  %4 = atomicrmw add ptr %refs_.i.i, i64 -4294967295 acq_rel, align 8
  %shr.i.mask.i.i = and i64 %4, -4294967296
  %cmp.i.i = icmp eq i64 %shr.i.mask.i.i, 4294967296
  br i1 %cmp.i.i, label %if.then.i.i1, label %if.end.i.i

if.then.i.i1:                                     ; preds = %if.then.i
  %vtable.i.i = load ptr, ptr %3, align 8
  %5 = load ptr, ptr %vtable.i.i, align 8
  invoke void %5(ptr noundef nonnull align 8 dereferenceable(8) %3)
          to label %if.end.i.i unwind label %terminate.lpad.i2

if.end.i.i:                                       ; preds = %if.then.i.i1, %if.then.i
  %6 = atomicrmw sub ptr %refs_.i.i, i64 1 acq_rel, align 8
  %cmp.not.i.i.i = icmp eq i64 %6, 1
  br i1 %cmp.not.i.i.i, label %delete.notnull.i.i.i, label %_ZN9grpc_core13RefCountedPtrINS_19LoadBalancingPolicy16SubchannelPickerEED2Ev.exit

delete.notnull.i.i.i:                             ; preds = %if.end.i.i
  %vtable.i.i.i = load ptr, ptr %3, align 8
  %vfn.i.i.i = getelementptr inbounds i8, ptr %vtable.i.i.i, i64 16
  %7 = load ptr, ptr %vfn.i.i.i, align 8
  tail call void %7(ptr noundef nonnull align 8 dereferenceable(16) %3) #23
  br label %_ZN9grpc_core13RefCountedPtrINS_19LoadBalancingPolicy16SubchannelPickerEED2Ev.exit

terminate.lpad.i2:                                ; preds = %if.then.i.i1
  %8 = landingpad { ptr, i32 }
          catch ptr null
  %9 = extractvalue { ptr, i32 } %8, 0
  tail call void @__clang_call_terminate(ptr %9) #26
  unreachable

_ZN9grpc_core13RefCountedPtrINS_19LoadBalancingPolicy16SubchannelPickerEED2Ev.exit: ; preds = %_ZN4absl12lts_202308026StatusD2Ev.exit, %if.end.i.i, %delete.notnull.i.i.i
  %this.val = load ptr, ptr %this, align 8
  %cmp.not.i3 = icmp eq ptr %this.val, null
  br i1 %cmp.not.i3, label %_ZN9grpc_core13RefCountedPtrINS_12_GLOBAL__N_18RingHash16RingHashEndpointEED2Ev.exit, label %if.then.i4

if.then.i4:                                       ; preds = %_ZN9grpc_core13RefCountedPtrINS_19LoadBalancingPolicy16SubchannelPickerEED2Ev.exit
  %refs_.i.i5 = getelementptr inbounds i8, ptr %this.val, i64 8
  %10 = atomicrmw sub ptr %refs_.i.i5, i64 1 acq_rel, align 8
  %cmp.i.i.i6 = icmp eq i64 %10, 1
  br i1 %cmp.i.i.i6, label %if.then.i.i7, label %_ZN9grpc_core13RefCountedPtrINS_12_GLOBAL__N_18RingHash16RingHashEndpointEED2Ev.exit

if.then.i.i7:                                     ; preds = %if.then.i4
  %vtable.i.i.i8 = load ptr, ptr %this.val, align 8
  %vfn.i.i.i9 = getelementptr inbounds i8, ptr %vtable.i.i.i8, i64 16
  %11 = load ptr, ptr %vfn.i.i.i9, align 8
  tail call void %11(ptr noundef nonnull align 8 dereferenceable(64) %this.val) #23
  br label %_ZN9grpc_core13RefCountedPtrINS_12_GLOBAL__N_18RingHash16RingHashEndpointEED2Ev.exit

_ZN9grpc_core13RefCountedPtrINS_12_GLOBAL__N_18RingHash16RingHashEndpointEED2Ev.exit: ; preds = %_ZN9grpc_core13RefCountedPtrINS_19LoadBalancingPolicy16SubchannelPickerEED2Ev.exit, %if.then.i4, %if.then.i.i7
  ret void
}